(lp0
Vsecond
p1
aVcancellation
p2
aVbrought
p3
aVstrike
p4
aVsuccessful
p5
aVcircumstances
p6
aVwrong
p7
aVfinancial
p8
aVservice
p9
aVaffairs
p10
aVresult
p11
aVnature
p12
aVextent
p13
aVdebt
p14
aVunion
p15
aVprivilege
p16
aVappeals
p17
aVtrustee
p18
aVdamages
p19
aVcorporate
p20
aVprevious
p21
aVright
p22
aVraised
p23
aVstatements
p24
aVsupport
p25
aVsolicitors
p26
aVoffer
p27
aVlater
p28
aVpersecution
p29
aVveterans
p30
aVallegations
p31
aVleave
p32
aVfindings
p33
aVscope
p34
aVvalidity
p35
aVbehalf
p36
aVallowed
p37
aVapplications
p38
aVdate
p39
aVnatural
p40
aVapplicant
p41
aVconstituted
p42
aVconstitutes
p43
aVpetition
p44
aVcontained
p45
aVinvestigation
p46
aVclause
p47
aVopen
p48
aVprospect
p49
aVaside
p50
aVtake
p51
aVsale
p52
aVfederal
p53
aVaffirmed
p54
aVdispute
p55
aVprima
p56
aVliable
p57
aVnotice
p58
aVworkplace
p59
aVengaged
p60
aVcosts
p61
aVact
p62
aVparties
p63
aVestoppel
p64
aVcitizenship
p65
aVcertain
p66
aVintention
p67
aVoriginal
p68
aVwaiver
p69
aVconsider
p70
aVappointment
p71
aVcondition
p72
aVpenalties
p73
aVinvestment
p74
aVsection
p75
aVfull
p76
aVcompliance
p77
aVprior
p78
aVsocial
p79
aVcompany
p80
aVadministrators
p81
aVinformation
p82
aVdismissed
p83
aVrefuse
p84
aVregister
p85
aVtrade
p86
aVfound
p87
aVoperation
p88
aVrelations
p89
aVrelationship
p90
aVaat
p91
aVdetermined
p92
aVfailed
p93
aVmigration
p94
aVpremises
p95
aVrespondents
p96
aVdeath
p97
aVprospects
p98
aVconnection
p99
aVfund
p100
aVrepresentative
p101
aVjudicial
p102
aVerror
p103
aVrules
p104
aVperson
p105
aVamp
p106
aVrelevance
p107
aVsubmissions
p108
aVimposed
p109
aVagreement
p110
aVrelating
p111
aVappropriate
p112
aVmedical
p113
aVinvalid
p114
aVland
p115
aVconsideration
p116
aVopinion
p117
aVministers
p118
aVchallenge
p119
aVprocess
p120
aVpurposes
p121
aVhigh
p122
aVdelay
p123
aVdoca
p124
aVundertaking
p125
aVwitness
p126
aVdismissal
p127
aValleged
p128
aVowner
p129
aVdeceptive
p130
aVsystem
p131
aVinterests
p132
aVfalse
p133
aVdocuments
p134
aVvisa
p135
aVfact
p136
aVallegation
p137
aVauthorised
p138
aVupon
p139
aVcredibility
p140
aVapplicants
p141
aVamendment
p142
aVliquidation
p143
aVconstruction
p144
aVrule
p145
aVpension
p146
aVonus
p147
aVdelegate
p148
aVestablished
p149
aVdecisions
p150
aVprotection
p151
aVemployees
p152
aVaward
p153
aVwork
p154
aVrefusing
p155
aVprovide
p156
aVinfringement
p157
aVordinary
p158
aVearlier
p159
aVcustoms
p160
aVlaw
p161
aVorder
p162
aVoffice
p163
aVconsent
p164
aVsatisfied
p165
aVproduction
p166
aVaffected
p167
aVreasonably
p168
aVreasonable
p169
aVstandard
p170
aVcertified
p171
aVrefugee
p172
aVanother
p173
aVrejected
p174
aVpowers
p175
aVgenuine
p176
aVexercised
p177
aVadequate
p178
aVsequestration
p179
aVterms
p180
aVreceived
p181
aVreceiver
p182
aVduties
p183
aVconcerning
p184
aVapplies
p185
aVproperty
p186
aVindependent
p187
aVboard
p188
aVsecurities
p189
aVsecurity
p190
aVconsiderations
p191
aVlegislation
p192
aVpayment
p193
aVway
p194
aVevidence
p195
aVtest
p196
aVaffidavit
p197
aVtribunals
p198
aVliability
p199
aVjurisdictional
p200
aVappear
p201
aVshares
p202
aVappeal
p203
aVtrial
p204
aVmarket
p205
aVinterim
p206
aVcommissioner
p207
aVheard
p208
aVbankrupt
p209
aVproduct
p210
aVprovision
p211
aVobligation
p212
aVtaxation
p213
aVaccordance
p214
aVprice
p215
aVprofessional
p216
aVfiling
p217
aVerred
p218
aVground
p219
aVtitle
p220
aVbias
p221
aVconstitutional
p222
aVreal
p223
aVbenefit
p224
aVbusiness
p225
aVdefault
p226
aVmanaged
p227
aVwitnesses
p228
aVamount
p229
aVfamily
p230
aVtaken
p231
aVinjury
p232
aVtried
p233
aVdenial
p234
aVheld
p235
aVtaxpayer
p236
aVabsence
p237
aVdisclosed
p238
aVevent
p239
aVsafety
p240
aVissue
p241
aVreason
p242
aVscheme
p243
aVprocedural
p244
aVsubstantial
p245
aVunreasonable
p246
aVcopyright
p247
aVjustice
p248
aVconditions
p249
aVought
p250
aVgrant
p251
aVpleadings
p252
aVused
p253
aVsuccess
p254
aVdisclosure
p255
aVregistered
p256
aVproperly
p257
aVauthority
p258
aVordered
p259
aVapplication
p260
aVregulations
p261
aVrequired
p262
aVcommercial
p263
aVpatents
p264
aVappointed
p265
aVsought
p266
aVarrangement
p267
aVincluding
p268
aVadjournment
p269
aVcommonwealth
p270
aVspecial
p271
aVunlawful
p272
aVcause
p273
aVdetermining
p274
aVmanagement
p275
aVsuperannuation
p276
aVneed
p277
aVproceedings
p278
aVbased
p279
aVemployer
p280
aVjoint
p281
aVmagistrate
p282
aVstate
p283
aVdiscrimination
p284
aVliquidator
p285
aVparty
p286
aVeffect
p287
aVsingle
p288
aVwarrant
p289
aVloss
p290
aVnecessary
p291
aVpayments
p292
aVpreviously
p293
aVadditional
p294
aVnotices
p295
aVcourts
p296
aVstay
p297
aVdetermination
p298
aVdisability
p299
aVcompanies
p300
aVconvenience
p301
aVlikely
p302
aVasic
p303
aVnew
p304
aVcredit
p305
aVaffirming
p306
aVrights
p307
aVgive
p308
aVpurchase
p309
aVthird
p310
aVpersonal
p311
aVprinciples
p312
aVmatter
p313
aVprinciple
p314
aVjurisdiction
p315
aVconduct
p316
aVcomply
p317
aVreference
p318
aVsubject
p319
aVsaid
p320
aVbasis
p321
aVthree
p322
aVparticulars
p323
aVcommission
p324
aVinterest
p325
aVentered
p326
aVdismiss
p327
aVbalance
p328
aVcomplaint
p329
aVentitled
p330
aVopportunity
p331
aVfailing
p332
aVpractices
p333
aVclaims
p334
aVhuman
p335
aVfacts
p336
aVpecuniary
p337
aVcharacter
p338
aVmagistrates
p339
aVappellant
p340
aVintellectual
p341
aVform
p342
aVfailure
p343
aVinsolvency
p344
aVmarks
p345
aVsuffered
p346
aVfavour
p347
aVinternational
p348
aVmaking
p349
aVclaim
p350
aVagent
p351
aVentity
p352
aVgroup
p353
aVpolicy
p354
aVwithin
p355
aVentitlements
p356
aVregistrar
p357
aVfirst
p358
aVcorporations
p359
aVwinding
p360
aVperformance
p361
aVpaid
p362
aVcontracts
p363
aVsummary
p364
aVmark
p365
aVdeclaration
p366
aVdifferent
p367
aVpay
p368
aVobjection
p369
aVmoney
p370
aVresolution
p371
aVpurported
p372
aVgeneral
p373
aVfile
p374
aVdeed
p375
aVassets
p376
aVoral
p377
aVdefence
p378
aVpublic
p379
aVshareholders
p380
aVparticular
p381
aVadvice
p382
aVindustrial
p383
aVexistence
p384
aVseeking
p385
aVharm
p386
aVinsurance
p387
aVbenefits
p388
aVstatement
p389
aVlease
p390
aVorders
p391
aVservices
p392
aVobligations
p393
aVrelation
p394
aVcommon
p395
aVexpert
p396
aVforeign
p397
aVpoint
p398
aVraise
p399
aVmeeting
p400
aVassignment
p401
aVpurpose
p402
aValternative
p403
aVadministrative
p404
aVmatters
p405
aVdecision
p406
aVgoods
p407
aVbankruptcy
p408
aVimmigration
p409
aVinterlocutory
p410
aVimplied
p411
aVpower
p412
aVgiving
p413
aVaccess
p414
aVpleading
p415
aVexercise
p416
aVdefendant
p417
aVaccount
p418
aVadmiralty
p419
aVcontempt
p420
aVnative
p421
aVcriminal
p422
aVextradition
p423
aVday
p424
aVsouth
p425
aVfacie
p426
aVdiscretionary
p427
aVcompensation
p428
aVrequest
p429
aVknowledge
p430
aVotherwise
p431
aVrelevant
p432
aVclaimed
p433
aVadministration
p434
aVmaterial
p435
aVjudgment
p436
aVarising
p437
aVproper
p438
aVdiscretion
p439
aVawarded
p440
aVcorporation
p441
aVlimited
p442
aVcontravention
p443
aVapplied
p444
aVrise
p445
aVassessment
p446
aVmust
p447
aVpatent
p448
aVinterpretation
p449
aVapplicable
p450
aVreinstatement
p451
aValready
p452
aVprimary
p453
aVhearing
p454
aVserve
p455
aVtook
p456
aVsolicitor
p457
aVfinal
p458
aVreport
p459
aVapproach
p460
aVdiscovery
p461
aVtrust
p462
aVjoinder
p463
aVprocedure
p464
aVaction
p465
aVproposed
p466
aVjudge
p467
aVofficer
p468
aVreviewable
p469
aVproceeding
p470
aVmisleading
p471
aVrespondent
p472
aVcivil
p473
aVfairness
p474
aVpayable
p475
aVserious
p476
aVcontraventions
p477
aVcharge
p478
aVinjunction
p479
aVaustralian
p480
aVemployee
p481
aVtribunal
p482
aVrequirements
p483
aVrepresentations
p484
aVrepresentation
p485
aVterm
p486
aVfactors
p487
aVmotion
p488
aVpleaded
p489
aVgiven
p490
aVconvention
p491
aVconsidered
p492
aVpursuant
p493
aVwritten
p494
aVsubsequent
p495
aVreview
p496
aVcontract
p497
aVduty
p498
aVperiod
p499
aVapproval
p500
aVdirection
p501
aVminister
p502
aVirrelevant
p503
aVcase
p504
aVamend
p505
aVgranted
p506
aVrefusal
p507
aVdirector
p508
aVpersons
p509
aVstatutory
p510
aVwithout
p511
aVrelief
p512
aVrelied
p513
aVtermination
p514
aVprovided
p515
aVlegal
p516
aVregard
p517
aVappellants
p518
aVseparate
p519
aVcreditor
p520
aVdirectors
p521
aVlack
p522
aVsettlement
p523
aVremoval
p524
aVindemnity
p525
aVdesign
p526
aVsum
p527
aVmembers
p528
aVcourt
p529
aVrather
p530
aVadverse
p531
aVhealth
p532
aVprejudice
p533
aVfinding
p534
aVcontractual
p535
aVpenalty
p536
aVcontext
p537
aVreasons
p538
aVpolitical
p539
aVdue
p540
aVdemand
p541
aVquestions
p542
aVamended
p543
aVrefused
p544
aVentitlement
p545
aVquestion
p546
aVfiled
p547
aVdeclarations
p548
aVassociated
p549
aVincome
p550
aVmeaning
p551
aVissued
p552
aVissues
p553
aVbreach
p554
aVapply
p555
aVuse
p556
aVfee
p557
aVproof
p558
aVtax
p559
aVdismissing
p560
aVattend
p561
aVabuse
p562
aVpending
p563
aVpractice
p564
aVregistration
p565
aVrelated
p566
aVphrases
p567
aVcreditors
p568
aVclass
p569
aVagreed
p570
aVfear
p571
aVlitigation
p572
aVplaintiff
p573
aVwords
p574
aVliquidators
p575
aVavailable
p576
aVrequirement
p577
aVmerits
p578
aVgrounds
p579
aVrespect
p580
aVagreements
p581
aVsufficient
p582
aVpresent
p583
aVmember
p584
aVobtain
p585
aVsupply
p586
aVprovisions
p587
aVemployment
p588
aVextension
p589
aVtransfer
p590
aVincurred
p591
a.